target datalayout = "e-m:e-p270:32:32-p271:32:32-p272:64:64-i64:64-i128:128-f80:128-n8:16:32:64-S128"
target triple = "x86_64-unknown-linux-gnu"

%"class.icu_75::UObject" = type { ptr }
%"class.icu_75::CollationLoader" = type { ptr, ptr, %"class.icu_75::Locale", %"class.icu_75::Locale", [16 x i8], [16 x i8], i32, i8, ptr, ptr, ptr }
%"class.icu_75::Locale" = type <{ %"class.icu_75::UObject", [12 x i8], [6 x i8], [4 x i8], [2 x i8], i32, [4 x i8], ptr, [157 x i8], [3 x i8], ptr, i8, [7 x i8] }>

; Function Attrs: mustprogress uwtable
define noundef ptr @_ZN6icu_7515CollationLoader16createCacheEntryER10UErrorCode(ptr noundef nonnull align 8 dereferenceable(528) %this, ptr noundef nonnull align 4 dereferenceable(4) %errorCode) #1 align 2 {
entry:
  %retval = alloca ptr, align 8
  %this.addr = alloca ptr, align 8
  %errorCode.addr = alloca ptr, align 8
  store ptr %this, ptr %this.addr, align 8
  store ptr %errorCode, ptr %errorCode.addr, align 8
  %this1 = load ptr, ptr %this.addr, align 8
  %bundle = getelementptr inbounds %"class.icu_75::CollationLoader", ptr %this1, i32 0, i32 8
  %0 = load ptr, ptr %bundle, align 8
  %cmp = icmp eq ptr %0, null
  br i1 %cmp, label %if.then, label %if.else

if.then:                                          ; preds = %entry
  %1 = load ptr, ptr %errorCode.addr, align 8
  %call = call noundef ptr @_ZN6icu_7515CollationLoader14loadFromLocaleER10UErrorCode(ptr noundef nonnull align 8 dereferenceable(528) %this1, ptr noundef nonnull align 4 dereferenceable(4) %1)
  store ptr %call, ptr %retval, align 8
  br label %return

if.else:                                          ; preds = %entry
  %collations = getelementptr inbounds %"class.icu_75::CollationLoader", ptr %this1, i32 0, i32 9
  %2 = load ptr, ptr %collations, align 8
  %cmp2 = icmp eq ptr %2, null
  br i1 %cmp2, label %if.then3, label %if.else5

if.then3:                                         ; preds = %if.else
  %3 = load ptr, ptr %errorCode.addr, align 8
  %call4 = call noundef ptr @_ZN6icu_7515CollationLoader14loadFromBundleER10UErrorCode(ptr noundef nonnull align 8 dereferenceable(528) %this1, ptr noundef nonnull align 4 dereferenceable(4) %3)
  store ptr %call4, ptr %retval, align 8
  br label %return

if.else5:                                         ; preds = %if.else
  %data = getelementptr inbounds %"class.icu_75::CollationLoader", ptr %this1, i32 0, i32 10
  %4 = load ptr, ptr %data, align 8
  %cmp6 = icmp eq ptr %4, null
  br i1 %cmp6, label %if.then7, label %if.else9

if.then7:                                         ; preds = %if.else5
  %5 = load ptr, ptr %errorCode.addr, align 8
  %call8 = call noundef ptr @_ZN6icu_7515CollationLoader18loadFromCollationsER10UErrorCode(ptr noundef nonnull align 8 dereferenceable(528) %this1, ptr noundef nonnull align 4 dereferenceable(4) %5)
  store ptr %call8, ptr %retval, align 8
  br label %return

if.else9:                                         ; preds = %if.else5
  %6 = load ptr, ptr %errorCode.addr, align 8
  %call10 = call noundef ptr @_ZN6icu_7515CollationLoader12loadFromDataER10UErrorCode(ptr noundef nonnull align 8 dereferenceable(528) %this1, ptr noundef nonnull align 4 dereferenceable(4) %6)
  store ptr %call10, ptr %retval, align 8
  br label %return

return:                                           ; preds = %if.else9, %if.then7, %if.then3, %if.then
  %7 = load ptr, ptr %retval, align 8
  ret ptr %7
}