; Function Attrs: mustprogress uwtable
define noundef ptr @_ZN6icu_7515CollationLoader16createCacheEntryER10UErrorCode(ptr noundef nonnull align 8 dereferenceable(528) %this, ptr noundef nonnull align 4 dereferenceable(4) %errorCode) local_unnamed_addr #1 align 2 {
entry:
  %bundle = getelementptr inbounds i8, ptr %this, i64 504
  %0 = load ptr, ptr %bundle, align 8
  %cmp = icmp eq ptr %0, null
  br i1 %cmp, label %if.then, label %if.else

if.then:                                          ; preds = %entry
  %call = tail call noundef ptr @_ZN6icu_7515CollationLoader14loadFromLocaleER10UErrorCode(ptr noundef nonnull align 8 dereferenceable(528) %this, ptr noundef nonnull align 4 dereferenceable(4) %errorCode)
  br label %return

if.else:                                          ; preds = %entry
  %collations = getelementptr inbounds i8, ptr %this, i64 512
  %1 = load ptr, ptr %collations, align 8
  %cmp2 = icmp eq ptr %1, null
  br i1 %cmp2, label %if.then3, label %if.else5

if.then3:                                         ; preds = %if.else
  %call4 = tail call noundef ptr @_ZN6icu_7515CollationLoader14loadFromBundleER10UErrorCode(ptr noundef nonnull align 8 dereferenceable(528) %this, ptr noundef nonnull align 4 dereferenceable(4) %errorCode)
  br label %return

if.else5:                                         ; preds = %if.else
  %data = getelementptr inbounds i8, ptr %this, i64 520
  %2 = load ptr, ptr %data, align 8
  %cmp6 = icmp eq ptr %2, null
  br i1 %cmp6, label %if.then7, label %if.else9

if.then7:                                         ; preds = %if.else5
  %call8 = tail call noundef ptr @_ZN6icu_7515CollationLoader18loadFromCollationsER10UErrorCode(ptr noundef nonnull align 8 dereferenceable(528) %this, ptr noundef nonnull align 4 dereferenceable(4) %errorCode)
  br label %return

if.else9:                                         ; preds = %if.else5
  %call10 = tail call noundef ptr @_ZN6icu_7515CollationLoader12loadFromDataER10UErrorCode(ptr noundef nonnull align 8 dereferenceable(528) %this, ptr noundef nonnull align 4 dereferenceable(4) %errorCode)
  br label %return

return:                                           ; preds = %if.else9, %if.then7, %if.then3, %if.then
  %retval.0 = phi ptr [ %call, %if.then ], [ %call4, %if.then3 ], [ %call8, %if.then7 ], [ %call10, %if.else9 ]
  ret ptr %retval.0
}